target datalayout = "e-m:e-p270:32:32-p271:32:32-p272:64:64-i64:64-i128:128-f80:128-n8:16:32:64-S128"
target triple = "x86_64-pc-linux-gnu"

%"class.pbrt::Point2" = type { %"class.pbrt::Tuple2" }
%"class.pbrt::Tuple2" = type { float, float }

; Function Attrs: mustprogress nounwind uwtable
define linkonce_odr dso_local noundef nonnull align 4 dereferenceable(4) ptr @_ZN4pbrt6Tuple2INS_6Point2EfEixEi(ptr noundef nonnull align 4 dereferenceable(8) %0, i32 noundef %1) #6 comdat align 2 {
  %3 = alloca ptr, align 8
  %4 = alloca i32, align 4
  store ptr %0, ptr %3, align 8, !tbaa !179
  store i32 %1, ptr %4, align 4, !tbaa !4
  %5 = load ptr, ptr %3, align 8
  br label %6

6:                                                ; preds = %2
  br label %7

7:                                                ; preds = %6
  %8 = load i32, ptr %4, align 4, !tbaa !4
  %9 = icmp eq i32 %8, 0
  br i1 %9, label %10, label %12

10:                                               ; preds = %7
  %11 = getelementptr inbounds nuw %"class.pbrt::Tuple2", ptr %5, i32 0, i32 0
  br label %14

12:                                               ; preds = %7
  %13 = getelementptr inbounds nuw %"class.pbrt::Tuple2", ptr %5, i32 0, i32 1
  br label %14

14:                                               ; preds = %12, %10
  %15 = phi ptr [ %11, %10 ], [ %13, %12 ]
  ret ptr %15
}

; Function Attrs: mustprogress uwtable
define dso_local <2 x float> @_ZN4pbrt19WrapEqualAreaSquareENS_6Point2IfEE(<2 x float> %0) #13 {
  %2 = alloca %"class.pbrt::Point2", align 4
  %3 = alloca %"class.pbrt::Point2", align 4
  %4 = getelementptr inbounds nuw %"class.pbrt::Point2", ptr %3, i32 0, i32 0
  store <2 x float> %0, ptr %4, align 4
  %5 = call noundef nonnull align 4 dereferenceable(4) ptr @_ZN4pbrt6Tuple2INS_6Point2EfEixEi(ptr noundef nonnull align 4 dereferenceable(8) %3, i32 noundef 0)
  %6 = load float, ptr %5, align 4, !tbaa !8
  %7 = fcmp olt float %6, 0.000000e+00
  br i1 %7, label %8, label %17

8:                                                ; preds = %1
  %9 = call noundef nonnull align 4 dereferenceable(4) ptr @_ZN4pbrt6Tuple2INS_6Point2EfEixEi(ptr noundef nonnull align 4 dereferenceable(8) %3, i32 noundef 0)
  %10 = load float, ptr %9, align 4, !tbaa !8
  %11 = fneg float %10
  %12 = call noundef nonnull align 4 dereferenceable(4) ptr @_ZN4pbrt6Tuple2INS_6Point2EfEixEi(ptr noundef nonnull align 4 dereferenceable(8) %3, i32 noundef 0)
  store float %11, ptr %12, align 4, !tbaa !8
  %13 = call noundef nonnull align 4 dereferenceable(4) ptr @_ZN4pbrt6Tuple2INS_6Point2EfEixEi(ptr noundef nonnull align 4 dereferenceable(8) %3, i32 noundef 1)
  %14 = load float, ptr %13, align 4, !tbaa !8
  %15 = fsub float 1.000000e+00, %14
  %16 = call noundef nonnull align 4 dereferenceable(4) ptr @_ZN4pbrt6Tuple2INS_6Point2EfEixEi(ptr noundef nonnull align 4 dereferenceable(8) %3, i32 noundef 1)
  store float %15, ptr %16, align 4, !tbaa !8
  br label %31

17:                                               ; preds = %1
  %18 = call noundef nonnull align 4 dereferenceable(4) ptr @_ZN4pbrt6Tuple2INS_6Point2EfEixEi(ptr noundef nonnull align 4 dereferenceable(8) %3, i32 noundef 0)
  %19 = load float, ptr %18, align 4, !tbaa !8
  %20 = fcmp ogt float %19, 1.000000e+00
  br i1 %20, label %21, label %30

21:                                               ; preds = %17
  %22 = call noundef nonnull align 4 dereferenceable(4) ptr @_ZN4pbrt6Tuple2INS_6Point2EfEixEi(ptr noundef nonnull align 4 dereferenceable(8) %3, i32 noundef 0)
  %23 = load float, ptr %22, align 4, !tbaa !8
  %24 = fsub float 2.000000e+00, %23
  %25 = call noundef nonnull align 4 dereferenceable(4) ptr @_ZN4pbrt6Tuple2INS_6Point2EfEixEi(ptr noundef nonnull align 4 dereferenceable(8) %3, i32 noundef 0)
  store float %24, ptr %25, align 4, !tbaa !8
  %26 = call noundef nonnull align 4 dereferenceable(4) ptr @_ZN4pbrt6Tuple2INS_6Point2EfEixEi(ptr noundef nonnull align 4 dereferenceable(8) %3, i32 noundef 1)
  %27 = load float, ptr %26, align 4, !tbaa !8
  %28 = fsub float 1.000000e+00, %27
  %29 = call noundef nonnull align 4 dereferenceable(4) ptr @_ZN4pbrt6Tuple2INS_6Point2EfEixEi(ptr noundef nonnull align 4 dereferenceable(8) %3, i32 noundef 1)
  store float %28, ptr %29, align 4, !tbaa !8
  br label %30

30:                                               ; preds = %21, %17
  br label %31

31:                                               ; preds = %30, %8
  %32 = call noundef nonnull align 4 dereferenceable(4) ptr @_ZN4pbrt6Tuple2INS_6Point2EfEixEi(ptr noundef nonnull align 4 dereferenceable(8) %3, i32 noundef 1)
  %33 = load float, ptr %32, align 4, !tbaa !8
  %34 = fcmp olt float %33, 0.000000e+00
  br i1 %34, label %35, label %44

35:                                               ; preds = %31
  %36 = call noundef nonnull align 4 dereferenceable(4) ptr @_ZN4pbrt6Tuple2INS_6Point2EfEixEi(ptr noundef nonnull align 4 dereferenceable(8) %3, i32 noundef 0)
  %37 = load float, ptr %36, align 4, !tbaa !8
  %38 = fsub float 1.000000e+00, %37
  %39 = call noundef nonnull align 4 dereferenceable(4) ptr @_ZN4pbrt6Tuple2INS_6Point2EfEixEi(ptr noundef nonnull align 4 dereferenceable(8) %3, i32 noundef 0)
  store float %38, ptr %39, align 4, !tbaa !8
  %40 = call noundef nonnull align 4 dereferenceable(4) ptr @_ZN4pbrt6Tuple2INS_6Point2EfEixEi(ptr noundef nonnull align 4 dereferenceable(8) %3, i32 noundef 1)
  %41 = load float, ptr %40, align 4, !tbaa !8
  %42 = fneg float %41
  %43 = call noundef nonnull align 4 dereferenceable(4) ptr @_ZN4pbrt6Tuple2INS_6Point2EfEixEi(ptr noundef nonnull align 4 dereferenceable(8) %3, i32 noundef 1)
  store float %42, ptr %43, align 4, !tbaa !8
  br label %58

44:                                               ; preds = %31
  %45 = call noundef nonnull align 4 dereferenceable(4) ptr @_ZN4pbrt6Tuple2INS_6Point2EfEixEi(ptr noundef nonnull align 4 dereferenceable(8) %3, i32 noundef 1)
  %46 = load float, ptr %45, align 4, !tbaa !8
  %47 = fcmp ogt float %46, 1.000000e+00
  br i1 %47, label %48, label %57

48:                                               ; preds = %44
  %49 = call noundef nonnull align 4 dereferenceable(4) ptr @_ZN4pbrt6Tuple2INS_6Point2EfEixEi(ptr noundef nonnull align 4 dereferenceable(8) %3, i32 noundef 0)
  %50 = load float, ptr %49, align 4, !tbaa !8
  %51 = fsub float 1.000000e+00, %50
  %52 = call noundef nonnull align 4 dereferenceable(4) ptr @_ZN4pbrt6Tuple2INS_6Point2EfEixEi(ptr noundef nonnull align 4 dereferenceable(8) %3, i32 noundef 0)
  store float %51, ptr %52, align 4, !tbaa !8
  %53 = call noundef nonnull align 4 dereferenceable(4) ptr @_ZN4pbrt6Tuple2INS_6Point2EfEixEi(ptr noundef nonnull align 4 dereferenceable(8) %3, i32 noundef 1)
  %54 = load float, ptr %53, align 4, !tbaa !8
  %55 = fsub float 2.000000e+00, %54
  %56 = call noundef nonnull align 4 dereferenceable(4) ptr @_ZN4pbrt6Tuple2INS_6Point2EfEixEi(ptr noundef nonnull align 4 dereferenceable(8) %3, i32 noundef 1)
  store float %55, ptr %56, align 4, !tbaa !8
  br label %57

57:                                               ; preds = %48, %44
  br label %58

58:                                               ; preds = %57, %35
  call void @llvm.memcpy.p0.p0.i64(ptr align 4 %2, ptr align 4 %3, i64 8, i1 false)
  %59 = getelementptr inbounds nuw %"class.pbrt::Point2", ptr %2, i32 0, i32 0
  %60 = load <2 x float>, ptr %59, align 4
  ret <2 x float> %60
}