; Function Attrs: mustprogress nofree norecurse nosync nounwind willreturn memory(none) uwtable
define dso_local <2 x float> @_ZN4pbrt19WrapEqualAreaSquareENS_6Point2IfEE(<2 x float> %0) local_unnamed_addr #13 {
  %.sroa.0.0.vec.extract = extractelement <2 x float> %0, i64 0
  %2 = fcmp olt float %.sroa.0.0.vec.extract, 0.000000e+00
  br i1 %2, label %3, label %6

3:                                                ; preds = %1
  %4 = fneg float %.sroa.0.0.vec.extract
  %.sroa.0.0.vec.insert = insertelement <2 x float> poison, float %4, i64 0
  %.sroa.0.4.vec.extract = extractelement <2 x float> %0, i64 1
  %5 = fsub float 1.000000e+00, %.sroa.0.4.vec.extract
  %.sroa.0.4.vec.insert = insertelement <2 x float> %.sroa.0.0.vec.insert, float %5, i64 1
  br label %11

6:                                                ; preds = %1
  %7 = fcmp ogt float %.sroa.0.0.vec.extract, 1.000000e+00
  br i1 %7, label %8, label %11

8:                                                ; preds = %6
  %9 = fsub float 2.000000e+00, %.sroa.0.0.vec.extract
  %.sroa.0.0.vec.insert10 = insertelement <2 x float> poison, float %9, i64 0
  %.sroa.0.4.vec.extract21 = extractelement <2 x float> %0, i64 1
  %10 = fsub float 1.000000e+00, %.sroa.0.4.vec.extract21
  %.sroa.0.4.vec.insert23 = insertelement <2 x float> %.sroa.0.0.vec.insert10, float %10, i64 1
  br label %11

11:                                               ; preds = %6, %8, %3
  %.sroa.0.0 = phi <2 x float> [ %.sroa.0.4.vec.insert, %3 ], [ %.sroa.0.4.vec.insert23, %8 ], [ %0, %6 ]
  %.sroa.0.4.vec.extract25 = extractelement <2 x float> %.sroa.0.0, i64 1
  %12 = fcmp olt float %.sroa.0.4.vec.extract25, 0.000000e+00
  br i1 %12, label %13, label %16

13:                                               ; preds = %11
  %.sroa.0.0.vec.extract12 = extractelement <2 x float> %.sroa.0.0, i64 0
  %14 = fsub float 1.000000e+00, %.sroa.0.0.vec.extract12
  %15 = fneg <2 x float> %.sroa.0.0
  %.sroa.0.4.vec.insert29 = insertelement <2 x float> %15, float %14, i64 0
  br label %21

16:                                               ; preds = %11
  %17 = fcmp ogt float %.sroa.0.4.vec.extract25, 1.000000e+00
  br i1 %17, label %18, label %21

18:                                               ; preds = %16
  %.sroa.0.0.vec.extract16 = extractelement <2 x float> %.sroa.0.0, i64 0
  %19 = fsub float 1.000000e+00, %.sroa.0.0.vec.extract16
  %.sroa.0.0.vec.insert18 = insertelement <2 x float> poison, float %19, i64 0
  %20 = fsub float 2.000000e+00, %.sroa.0.4.vec.extract25
  %.sroa.0.4.vec.insert35 = insertelement <2 x float> %.sroa.0.0.vec.insert18, float %20, i64 1
  br label %21

21:                                               ; preds = %16, %18, %13
  %.sroa.0.1 = phi <2 x float> [ %.sroa.0.4.vec.insert29, %13 ], [ %.sroa.0.4.vec.insert35, %18 ], [ %.sroa.0.0, %16 ]
  ret <2 x float> %.sroa.0.1
}